target datalayout = "e-m:e-p270:32:32-p271:32:32-p272:64:64-i64:64-i128:128-f80:128-n8:16:32:64-S128"
target triple = "x86_64-pc-linux-gnu"

%struct.hwloc_infos_s = type { ptr, i32, i32 }
%struct.hwloc_obj = type { i32, ptr, i32, ptr, i64, ptr, i32, i32, ptr, ptr, ptr, i32, ptr, ptr, i32, ptr, ptr, ptr, i32, i32, ptr, i32, ptr, i32, ptr, ptr, ptr, ptr, ptr, %struct.hwloc_infos_s, ptr, i64 }

; Function Attrs: nounwind uwtable
define internal i32 @hwloc__get_largest_objs_inside_cpuset(ptr noundef %0, ptr noundef %1, ptr noundef %2, ptr noundef %3) #0 {
  %5 = alloca i32, align 4
  %6 = alloca ptr, align 8
  %7 = alloca ptr, align 8
  %8 = alloca ptr, align 8
  %9 = alloca ptr, align 8
  %10 = alloca i32, align 4
  %11 = alloca i32, align 4
  %12 = alloca i32, align 4
  %13 = alloca ptr, align 8
  %14 = alloca i32, align 4
  store ptr %0, ptr %6, align 8, !tbaa !37
  store ptr %1, ptr %7, align 8, !tbaa !60
  store ptr %2, ptr %8, align 8, !tbaa !61
  store ptr %3, ptr %9, align 8, !tbaa !62
  call void @llvm.lifetime.start.p0(i64 4, ptr %10) #10
  store i32 0, ptr %10, align 4, !tbaa !8
  call void @llvm.lifetime.start.p0(i64 4, ptr %11) #10
  %15 = load ptr, ptr %9, align 8, !tbaa !62
  %16 = load i32, ptr %15, align 4, !tbaa !8
  %17 = icmp sle i32 %16, 0
  br i1 %17, label %18, label %19

18:                                               ; preds = %4
  store i32 0, ptr %5, align 4
  store i32 1, ptr %12, align 4
  br label %100

19:                                               ; preds = %4
  %20 = load ptr, ptr %6, align 8, !tbaa !37
  %21 = getelementptr inbounds nuw %struct.hwloc_obj, ptr %20, i32 0, i32 25
  %22 = load ptr, ptr %21, align 8, !tbaa !57
  %23 = load ptr, ptr %7, align 8, !tbaa !60
  %24 = call i32 @hwloc_bitmap_isequal(ptr noundef %22, ptr noundef %23) #11
  %25 = icmp ne i32 %24, 0
  br i1 %25, label %26, label %36

26:                                               ; preds = %19
  %27 = load ptr, ptr %6, align 8, !tbaa !37
  %28 = load ptr, ptr %8, align 8, !tbaa !61
  %29 = load ptr, ptr %28, align 8, !tbaa !35
  store ptr %27, ptr %29, align 8, !tbaa !37
  %30 = load ptr, ptr %8, align 8, !tbaa !61
  %31 = load ptr, ptr %30, align 8, !tbaa !35
  %32 = getelementptr inbounds nuw ptr, ptr %31, i32 1
  store ptr %32, ptr %30, align 8, !tbaa !35
  %33 = load ptr, ptr %9, align 8, !tbaa !62
  %34 = load i32, ptr %33, align 4, !tbaa !8
  %35 = add nsw i32 %34, -1
  store i32 %35, ptr %33, align 4, !tbaa !8
  store i32 1, ptr %5, align 4
  store i32 1, ptr %12, align 4
  br label %100

36:                                               ; preds = %19
  store i32 0, ptr %11, align 4, !tbaa !8
  br label %37

37:                                               ; preds = %95, %36
  %38 = load i32, ptr %11, align 4, !tbaa !8
  %39 = load ptr, ptr %6, align 8, !tbaa !37
  %40 = getelementptr inbounds nuw %struct.hwloc_obj, ptr %39, i32 0, i32 14
  %41 = load i32, ptr %40, align 8, !tbaa !63
  %42 = icmp ult i32 %38, %41
  br i1 %42, label %43, label %98

43:                                               ; preds = %37
  call void @llvm.lifetime.start.p0(i64 8, ptr %13) #10
  call void @llvm.lifetime.start.p0(i64 4, ptr %14) #10
  %44 = load ptr, ptr %7, align 8, !tbaa !60
  %45 = load ptr, ptr %6, align 8, !tbaa !37
  %46 = getelementptr inbounds nuw %struct.hwloc_obj, ptr %45, i32 0, i32 15
  %47 = load ptr, ptr %46, align 8, !tbaa !64
  %48 = load i32, ptr %11, align 4, !tbaa !8
  %49 = zext i32 %48 to i64
  %50 = getelementptr inbounds nuw ptr, ptr %47, i64 %49
  %51 = load ptr, ptr %50, align 8, !tbaa !37
  %52 = getelementptr inbounds nuw %struct.hwloc_obj, ptr %51, i32 0, i32 25
  %53 = load ptr, ptr %52, align 8, !tbaa !57
  %54 = call i32 @hwloc_bitmap_intersects(ptr noundef %44, ptr noundef %53) #11
  %55 = icmp ne i32 %54, 0
  br i1 %55, label %57, label %56

56:                                               ; preds = %43
  store i32 4, ptr %12, align 4
  br label %92

57:                                               ; preds = %43
  %58 = load ptr, ptr %7, align 8, !tbaa !60
  %59 = call noalias ptr @hwloc_bitmap_dup(ptr noundef %58)
  store ptr %59, ptr %13, align 8, !tbaa !60
  %60 = load ptr, ptr %13, align 8, !tbaa !60
  %61 = load ptr, ptr %13, align 8, !tbaa !60
  %62 = load ptr, ptr %6, align 8, !tbaa !37
  %63 = getelementptr inbounds nuw %struct.hwloc_obj, ptr %62, i32 0, i32 15
  %64 = load ptr, ptr %63, align 8, !tbaa !64
  %65 = load i32, ptr %11, align 4, !tbaa !8
  %66 = zext i32 %65 to i64
  %67 = getelementptr inbounds nuw ptr, ptr %64, i64 %66
  %68 = load ptr, ptr %67, align 8, !tbaa !37
  %69 = getelementptr inbounds nuw %struct.hwloc_obj, ptr %68, i32 0, i32 25
  %70 = load ptr, ptr %69, align 8, !tbaa !57
  %71 = call i32 @hwloc_bitmap_and(ptr noundef %60, ptr noundef %61, ptr noundef %70)
  %72 = load ptr, ptr %6, align 8, !tbaa !37
  %73 = getelementptr inbounds nuw %struct.hwloc_obj, ptr %72, i32 0, i32 15
  %74 = load ptr, ptr %73, align 8, !tbaa !64
  %75 = load i32, ptr %11, align 4, !tbaa !8
  %76 = zext i32 %75 to i64
  %77 = getelementptr inbounds nuw ptr, ptr %74, i64 %76
  %78 = load ptr, ptr %77, align 8, !tbaa !37
  %79 = load ptr, ptr %13, align 8, !tbaa !60
  %80 = load ptr, ptr %8, align 8, !tbaa !61
  %81 = load ptr, ptr %9, align 8, !tbaa !62
  %82 = call i32 @hwloc__get_largest_objs_inside_cpuset(ptr noundef %78, ptr noundef %79, ptr noundef %80, ptr noundef %81)
  store i32 %82, ptr %14, align 4, !tbaa !8
  %83 = load i32, ptr %14, align 4, !tbaa !8
  %84 = load i32, ptr %10, align 4, !tbaa !8
  %85 = add nsw i32 %84, %83
  store i32 %85, ptr %10, align 4, !tbaa !8
  %86 = load ptr, ptr %13, align 8, !tbaa !60
  call void @hwloc_bitmap_free(ptr noundef %86)
  %87 = load ptr, ptr %9, align 8, !tbaa !62
  %88 = load i32, ptr %87, align 4, !tbaa !8
  %89 = icmp ne i32 %88, 0
  br i1 %89, label %91, label %90

90:                                               ; preds = %57
  store i32 2, ptr %12, align 4
  br label %92

91:                                               ; preds = %57
  store i32 0, ptr %12, align 4
  br label %92

92:                                               ; preds = %91, %90, %56
  call void @llvm.lifetime.end.p0(i64 4, ptr %14) #10
  call void @llvm.lifetime.end.p0(i64 8, ptr %13) #10
  %93 = load i32, ptr %12, align 4
  switch i32 %93, label %102 [
    i32 0, label %94
    i32 4, label %95
    i32 2, label %98
  ]

94:                                               ; preds = %92
  br label %95

95:                                               ; preds = %94, %92
  %96 = load i32, ptr %11, align 4, !tbaa !8
  %97 = add i32 %96, 1
  store i32 %97, ptr %11, align 4, !tbaa !8
  br label %37, !llvm.loop !65

98:                                               ; preds = %92, %37
  %99 = load i32, ptr %10, align 4, !tbaa !8
  store i32 %99, ptr %5, align 4
  store i32 1, ptr %12, align 4
  br label %100

100:                                              ; preds = %98, %26, %18
  call void @llvm.lifetime.end.p0(i64 4, ptr %11) #10
  call void @llvm.lifetime.end.p0(i64 4, ptr %10) #10
  %101 = load i32, ptr %5, align 4
  ret i32 %101

102:                                              ; preds = %92
  unreachable
}