; Function Attrs: nounwind uwtable
define internal fastcc i32 @hwloc__get_largest_objs_inside_cpuset(ptr noundef %0, ptr noundef %1, ptr noundef nonnull captures(none) %2, ptr noundef nonnull captures(none) %3) unnamed_addr #7 {
  %5 = load i32, ptr %3, align 4, !tbaa !3
  %6 = icmp slt i32 %5, 1
  br i1 %6, label %.loopexit, label %7

7:                                                ; preds = %4
  %8 = getelementptr inbounds nuw i8, ptr %0, i64 184
  %9 = load ptr, ptr %8, align 8, !tbaa !53
  %10 = tail call i32 @hwloc_bitmap_isequal(ptr noundef %9, ptr noundef %1) #19
  %.not = icmp eq i32 %10, 0
  br i1 %.not, label %.preheader, label %14

.preheader:                                       ; preds = %7
  %11 = getelementptr inbounds nuw i8, ptr %0, i64 104
  %12 = load i32, ptr %11, align 8, !tbaa !56
  %.not43 = icmp eq i32 %12, 0
  br i1 %.not43, label %.loopexit, label %.lr.ph

.lr.ph:                                           ; preds = %.preheader
  %13 = getelementptr inbounds nuw i8, ptr %0, i64 112
  br label %18

14:                                               ; preds = %7
  %15 = load ptr, ptr %2, align 8, !tbaa !33
  store ptr %0, ptr %15, align 8, !tbaa !35
  %16 = getelementptr inbounds nuw i8, ptr %15, i64 8
  store ptr %16, ptr %2, align 8, !tbaa !33
  %17 = add nsw i32 %5, -1
  store i32 %17, ptr %3, align 4, !tbaa !3
  br label %.loopexit

18:                                               ; preds = %.lr.ph, %.thread
  %19 = phi i32 [ %12, %.lr.ph ], [ %40, %.thread ]
  %indvars.iv = phi i64 [ 0, %.lr.ph ], [ %indvars.iv.next, %.thread ]
  %.02940 = phi i32 [ 0, %.lr.ph ], [ %.238, %.thread ]
  %20 = load ptr, ptr %13, align 8, !tbaa !57
  %21 = getelementptr inbounds nuw ptr, ptr %20, i64 %indvars.iv
  %22 = load ptr, ptr %21, align 8, !tbaa !35
  %23 = getelementptr inbounds nuw i8, ptr %22, i64 184
  %24 = load ptr, ptr %23, align 8, !tbaa !53
  %25 = tail call i32 @hwloc_bitmap_intersects(ptr noundef %1, ptr noundef %24) #19
  %.not32 = icmp eq i32 %25, 0
  br i1 %.not32, label %.thread, label %26

26:                                               ; preds = %18
  %27 = tail call noalias ptr @hwloc_bitmap_dup(ptr noundef %1) #20
  %28 = load ptr, ptr %13, align 8, !tbaa !57
  %29 = getelementptr inbounds nuw ptr, ptr %28, i64 %indvars.iv
  %30 = load ptr, ptr %29, align 8, !tbaa !35
  %31 = getelementptr inbounds nuw i8, ptr %30, i64 184
  %32 = load ptr, ptr %31, align 8, !tbaa !53
  %33 = tail call i32 @hwloc_bitmap_and(ptr noundef %27, ptr noundef %27, ptr noundef %32) #20
  %34 = load ptr, ptr %13, align 8, !tbaa !57
  %35 = getelementptr inbounds nuw ptr, ptr %34, i64 %indvars.iv
  %36 = load ptr, ptr %35, align 8, !tbaa !35
  %37 = tail call fastcc i32 @hwloc__get_largest_objs_inside_cpuset(ptr noundef %36, ptr noundef %27, ptr noundef %2, ptr noundef %3)
  %38 = add nsw i32 %37, %.02940
  tail call void @hwloc_bitmap_free(ptr noundef %27) #20
  %39 = load i32, ptr %3, align 4, !tbaa !3
  %.not33 = icmp eq i32 %39, 0
  br i1 %.not33, label %.loopexit, label %..thread_crit_edge

..thread_crit_edge:                               ; preds = %26
  %.pre = load i32, ptr %11, align 8, !tbaa !56
  br label %.thread

.thread:                                          ; preds = %..thread_crit_edge, %18
  %40 = phi i32 [ %.pre, %..thread_crit_edge ], [ %19, %18 ]
  %.238 = phi i32 [ %38, %..thread_crit_edge ], [ %.02940, %18 ]
  %indvars.iv.next = add nuw nsw i64 %indvars.iv, 1
  %41 = zext i32 %40 to i64
  %42 = icmp samesign ult i64 %indvars.iv.next, %41
  br i1 %42, label %18, label %.loopexit, !llvm.loop !58

.loopexit:                                        ; preds = %26, %.thread, %.preheader, %4, %14
  %.0 = phi i32 [ 1, %14 ], [ 0, %4 ], [ 0, %.preheader ], [ %38, %26 ], [ %.238, %.thread ]
  ret i32 %.0
}